Certificate:
    Data:
        Version: 1 (0x0)
        Serial Number: 15 (0xf)
    Signature Algorithm: md5WithRSAEncryption
        Issuer: C=SG, ST=Singapore, L=Singapore, O=SUTD, OU=ISTD, CN=security.istd.sutd.edu.sg/emailAddress=oka_kurniawan@sutd.edu.sg
        Validity
            Not Before: Dec  9 08:11:04 2014 GMT
            Not After : Dec  9 08:11:04 2015 GMT
        Subject: C=SG, ST=Singapore, L=Singapore, O=SUTD, OU=Student, CN=Toh Yong Cheng/emailAddress=yongcheng_toh@mymail.sutd.edu.sg
        Subject Public Key Info:
            Public Key Algorithm: rsaEncryption
                Public-Key: (2048 bit)
                Modulus:
                    00:a1:70:ca:af:cb:e3:4a:30:66:e4:7d:1e:91:f8:
                    41:8d:93:bf:24:2e:70:16:41:71:17:4c:e2:4b:fb:
                    9a:5d:ae:44:66:d7:2f:b6:85:9b:8a:5b:73:b3:2f:
                    e3:91:38:3e:0f:42:65:f2:3c:7f:a1:62:42:07:b7:
                    59:02:af:33:66:ab:34:88:81:19:69:25:30:d2:3f:
                    f0:4f:0c:e1:39:86:9c:80:f2:22:1e:96:45:b7:59:
                    17:03:02:1e:d5:6d:5e:4a:88:85:ac:73:fa:b7:18:
                    82:0e:70:4f:33:6e:6b:37:6f:9e:ff:37:fa:4c:65:
                    dd:f5:f0:50:e3:e4:84:a5:d6:10:c2:3b:1e:2a:46:
                    9a:6e:9b:fc:e7:0d:d8:29:92:3d:95:c6:d2:37:84:
                    b8:57:49:69:9d:98:0c:8f:f9:0d:49:2d:91:59:99:
                    12:d5:75:05:cb:79:7f:e7:e8:7f:b9:b3:88:f3:c5:
                    31:54:2d:1a:3b:aa:67:4c:62:48:4a:f5:86:95:51:
                    d9:ac:2b:98:55:1c:c8:ea:b9:fa:b9:ec:85:e9:87:
                    10:46:59:87:ea:af:b0:ce:0a:ee:0e:e7:0e:a2:46:
                    11:e6:e0:ce:fa:fe:34:1f:82:aa:3b:40:75:86:6a:
                    52:d1:ae:73:a7:55:d5:8a:e8:7e:e9:7a:a1:9f:ed:
                    8b:f1
                Exponent: 65537 (0x10001)
    Signature Algorithm: md5WithRSAEncryption
         46:39:1d:b8:66:c7:ff:7a:33:0e:b8:6f:53:60:76:16:58:85:
         ef:36:68:b9:78:77:84:87:d4:11:37:31:ca:3e:d0:ad:ad:46:
         38:41:bc:6f:bf:63:0a:b8:b2:ec:49:60:de:c3:75:66:a8:c6:
         af:bb:f2:9a:b2:70:44:55:59:f8:0b:53:64:92:d9:a4:0a:ac:
         46:fe:8c:64:74:51:35:4e:0d:89:de:b1:35:15:95:78:b9:1b:
         c6:24:7c:64:ff:cc:4f:14:8a:06:70:07:51:56:d7:59:e5:e3:
         06:43:ec:02:b1:4c:61:e4:8c:0b:b3:04:92:5f:b1:eb:86:84:
         75:1d
-----BEGIN CERTIFICATE-----
MIIDNjCCAp8CAQ8wDQYJKoZIhvcNAQEEBQAwgaExCzAJBgNVBAYTAlNHMRIwEAYD
VQQIDAlTaW5nYXBvcmUxEjAQBgNVBAcMCVNpbmdhcG9yZTENMAsGA1UECgwEU1VU
RDENMAsGA1UECwwESVNURDEiMCAGA1UEAwwZc2VjdXJpdHkuaXN0ZC5zdXRkLmVk
dS5zZzEoMCYGCSqGSIb3DQEJARYZb2thX2t1cm5pYXdhbkBzdXRkLmVkdS5zZzAe
Fw0xNDEyMDkwODExMDRaFw0xNTEyMDkwODExMDRaMIGgMQswCQYDVQQGEwJTRzES
MBAGA1UECBMJU2luZ2Fwb3JlMRIwEAYDVQQHEwlTaW5nYXBvcmUxDTALBgNVBAoT
BFNVVEQxEDAOBgNVBAsTB1N0dWRlbnQxFzAVBgNVBAMTDlRvaCBZb25nIENoZW5n
MS8wLQYJKoZIhvcNAQkBFiB5b25nY2hlbmdfdG9oQG15bWFpbC5zdXRkLmVkdS5z
ZzCCASIwDQYJKoZIhvcNAQEBBQADggEPADCCAQoCggEBAKFwyq/L40owZuR9HpH4
QY2TvyQucBZBcRdM4kv7ml2uRGbXL7aFm4pbc7Mv45E4Pg9CZfI8f6FiQge3WQKv
M2arNIiBGWklMNI/8E8M4TmGnIDyIh6WRbdZFwMCHtVtXkqIhaxz+rcYgg5wTzNu
azdvnv83+kxl3fXwUOPkhKXWEMI7HipGmm6b/OcN2CmSPZXG0jeEuFdJaZ2YDI/5
DUktkVmZEtV1Bct5f+fof7mziPPFMVQtGjuqZ0xiSEr1hpVR2awrmFUcyOq5+rns
hemHEEZZh+qvsM4K7g7nDqJGEebgzvr+NB+CqjtAdYZqUtGuc6dV1Yroful6oZ/t
i/ECAwEAATANBgkqhkiG9w0BAQQFAAOBgQBGOR24Zsf/ejMOuG9TYHYWWIXvNmi5
eHeEh9QRNzHKPtCtrUY4Qbxvv2MKuLLsSWDew3VmqMavu/KasnBEVVn4C1Nkktmk
CqxG/oxkdFE1Tg2J3rE1FZV4uRvGJHxk/8xPFIoGcAdRVtdZ5eMGQ+wCsUxh5IwL
swSSX7HrhoR1HQ==
-----END CERTIFICATE-----
