Certificate:
    Data:
        Version: 1 (0x0)
        Serial Number: 4 (0x4)
    Signature Algorithm: md5WithRSAEncryption
        Issuer: C=SG, ST=Singapore, L=Singapore, O=SUTD, OU=ISTD, CN=security.istd.sutd.edu.sg/emailAddress=oka_kurniawan@sutd.edu.sg
        Validity
            Not Before: Dec  8 01:10:45 2014 GMT
            Not After : Dec  8 01:10:45 2015 GMT
        Subject: C=SG, ST=Singapore, L=Singapore, O=Monkey Bananas Pte Ltd, OU=Monkey King, CN=1000050/emailAddress=1000050@mymail.sutd.edu.sg
        Subject Public Key Info:
            Public Key Algorithm: rsaEncryption
                Public-Key: (2048 bit)
                Modulus:
                    00:bd:a1:9a:0a:4c:24:1a:83:04:45:e0:47:43:65:
                    60:c9:72:ba:89:25:2f:66:db:4e:f9:1a:3b:7b:ab:
                    cf:3f:47:8c:2d:06:bb:86:ef:b0:a4:5d:28:39:5e:
                    ce:95:f9:c2:00:20:42:76:da:cf:a8:37:f2:13:d2:
                    cb:e5:db:55:07:a2:92:3f:ce:33:24:78:3e:47:92:
                    7b:ed:7e:d2:ba:62:46:6c:28:12:3f:94:72:93:27:
                    bf:6d:1c:de:02:58:7d:c0:d7:f5:ee:af:f3:a2:e7:
                    91:d5:44:99:1f:c2:9a:5d:35:69:aa:77:14:d5:a6:
                    df:bd:2b:9e:de:16:cd:5b:2b:ce:b7:65:04:21:5c:
                    49:ca:aa:d2:59:ed:4c:2d:c2:d6:86:4f:a2:b8:d9:
                    99:b1:80:7d:23:d9:3a:b2:73:6d:1f:5a:cf:6a:c2:
                    dc:1a:01:b3:26:b7:d5:70:9a:ec:b5:0f:a4:c4:25:
                    ca:ab:23:fd:cc:f1:f6:f2:c8:82:37:15:a0:80:05:
                    a1:62:37:48:bd:0a:d7:d0:ab:4a:79:39:a5:c3:e4:
                    83:6f:70:6d:a2:a5:c0:1a:e9:ad:5e:ae:05:84:90:
                    74:a1:8f:9f:1f:21:01:df:e4:d8:87:fa:98:cc:95:
                    a9:d8:70:38:ed:74:17:39:4f:db:9d:23:9f:87:a7:
                    a6:f5
                Exponent: 65537 (0x10001)
    Signature Algorithm: md5WithRSAEncryption
         44:ef:f2:a1:90:75:a2:39:e5:07:55:60:4b:fa:c8:a8:1c:96:
         f4:08:de:ed:79:16:51:0b:19:8b:6b:9e:3c:a6:fc:aa:ec:f0:
         90:ec:60:d5:4e:d3:27:9d:c0:d2:56:93:fb:42:60:0e:f1:0b:
         a7:50:b7:5d:b9:09:2c:00:db:ad:49:4f:a9:f9:93:87:fc:57:
         e4:20:41:50:fc:b9:aa:0e:66:72:47:a4:fc:fd:ad:06:36:09:
         81:94:c1:d0:af:33:8e:b6:8d:cc:f6:5f:9b:eb:b6:63:dc:4e:
         5c:7d:62:7d:6b:ef:2c:7f:1f:86:c8:5f:29:57:18:71:32:01:
         51:43
-----BEGIN CERTIFICATE-----
MIIDPzCCAqgCAQQwDQYJKoZIhvcNAQEEBQAwgaExCzAJBgNVBAYTAlNHMRIwEAYD
VQQIDAlTaW5nYXBvcmUxEjAQBgNVBAcMCVNpbmdhcG9yZTENMAsGA1UECgwEU1VU
RDENMAsGA1UECwwESVNURDEiMCAGA1UEAwwZc2VjdXJpdHkuaXN0ZC5zdXRkLmVk
dS5zZzEoMCYGCSqGSIb3DQEJARYZb2thX2t1cm5pYXdhbkBzdXRkLmVkdS5zZzAe
Fw0xNDEyMDgwMTEwNDVaFw0xNTEyMDgwMTEwNDVaMIGpMQswCQYDVQQGEwJTRzES
MBAGA1UECBMJU2luZ2Fwb3JlMRIwEAYDVQQHEwlTaW5nYXBvcmUxHzAdBgNVBAoT
Fk1vbmtleSBCYW5hbmFzIFB0ZSBMdGQxFDASBgNVBAsTC01vbmtleSBLaW5nMRAw
DgYDVQQDEwcxMDAwMDUwMSkwJwYJKoZIhvcNAQkBFhoxMDAwMDUwQG15bWFpbC5z
dXRkLmVkdS5zZzCCASIwDQYJKoZIhvcNAQEBBQADggEPADCCAQoCggEBAL2hmgpM
JBqDBEXgR0NlYMlyuoklL2bbTvkaO3urzz9HjC0Gu4bvsKRdKDlezpX5wgAgQnba
z6g38hPSy+XbVQeikj/OMyR4PkeSe+1+0rpiRmwoEj+UcpMnv20c3gJYfcDX9e6v
86LnkdVEmR/Cml01aap3FNWm370rnt4WzVsrzrdlBCFcScqq0lntTC3C1oZPorjZ
mbGAfSPZOrJzbR9az2rC3BoBsya31XCa7LUPpMQlyqsj/czx9vLIgjcVoIAFoWI3
SL0K19CrSnk5pcPkg29wbaKlwBrprV6uBYSQdKGPnx8hAd/k2If6mMyVqdhwOO10
FzlP250jn4enpvUCAwEAATANBgkqhkiG9w0BAQQFAAOBgQBE7/KhkHWiOeUHVWBL
+sioHJb0CN7teRZRCxmLa548pvyq7PCQ7GDVTtMnncDSVpP7QmAO8QunULdduQks
ANutSU+p+ZOH/FfkIEFQ/LmqDmZyR6T8/a0GNgmBlMHQrzOOto3M9l+b67Zj3E5c
fWJ9a+8sfx+GyF8pVxhxMgFRQw==
-----END CERTIFICATE-----
